Certificate:
    Data:
        Version: 3 (0x2)
        Serial Number:
            c2:01:b1:38:9e:ac:2e:32:fd:fc:6d:83:5d:63:38:af
        Signature Algorithm: sha256WithRSAEncryption
        Issuer: CN=vpn.fuer.alle
        Validity
            Not Before: Jan 23 20:34:14 2023 GMT
            Not After : Apr 27 20:34:14 2025 GMT
        Subject: CN=server
        Subject Public Key Info:
            Public Key Algorithm: rsaEncryption
                RSA Public-Key: (2048 bit)
                Modulus:
                    00:d2:91:36:51:c0:58:ba:b9:6b:88:fd:8e:36:28:
                    ab:31:49:a6:0f:e8:c8:e5:9f:41:c6:f5:f0:26:54:
                    53:45:e8:59:83:82:a2:22:53:c7:b5:b8:18:b6:0e:
                    32:8b:cd:b6:15:3d:d8:70:02:b8:f9:d2:1c:49:b0:
                    ce:69:26:8e:a6:5b:c0:c3:3c:3d:70:96:e6:80:21:
                    37:e1:6a:36:c3:48:53:9a:e5:9a:14:ca:a8:11:a7:
                    86:6b:39:ad:ad:63:76:c0:7b:0c:e7:b8:1b:c4:66:
                    d0:9a:81:28:d7:0a:82:98:68:5e:5e:b0:7c:4b:68:
                    b9:c3:82:e5:27:0d:46:78:11:13:13:93:10:53:b2:
                    46:04:94:da:5d:f6:af:00:cd:12:cd:6f:9d:61:71:
                    5c:9e:6c:f3:04:e4:2d:4b:bc:84:bf:02:9d:d7:e7:
                    0c:71:ad:7a:80:7f:63:f2:11:9f:de:54:1a:fd:ad:
                    88:39:c6:f4:d9:aa:03:2b:95:84:c6:e2:2a:83:aa:
                    30:d0:da:0c:9b:2e:00:f1:35:21:f4:ba:f1:c9:09:
                    28:23:3e:12:1b:3f:4f:d7:c4:48:07:ca:7d:d6:b9:
                    35:94:67:c3:0e:14:4f:35:9e:e3:fe:d1:bc:b3:d2:
                    08:ae:99:ed:da:d0:f3:bc:e8:94:63:15:a9:6d:cd:
                    76:49
                Exponent: 65537 (0x10001)
        X509v3 extensions:
            X509v3 Basic Constraints: 
                CA:FALSE
            X509v3 Subject Key Identifier: 
                A5:80:26:7D:8D:67:93:A6:F9:F4:BF:19:1C:62:DD:66:9B:C8:4F:7C
            X509v3 Authority Key Identifier: 
                keyid:F0:D9:47:53:2C:A0:80:13:4C:E9:75:38:95:8E:62:2A:9B:A7:C1:FD
                DirName:/CN=vpn.fuer.alle
                serial:03:11:DD:D1:4C:E6:C8:6B:2F:D8:2A:80:29:68:48:30:D4:32:93:39

            X509v3 Extended Key Usage: 
                TLS Web Server Authentication
            X509v3 Key Usage: 
                Digital Signature, Key Encipherment
            X509v3 Subject Alternative Name: 
                DNS:server
    Signature Algorithm: sha256WithRSAEncryption
         02:fa:bf:56:c4:b2:87:43:a6:dd:52:14:be:57:85:b1:6f:1b:
         1a:11:0e:53:f7:79:06:af:ec:40:8c:1d:d7:24:0b:92:41:7a:
         3c:e9:23:90:dc:9d:3c:b2:f7:67:26:28:26:24:8b:c7:40:11:
         c0:fe:56:c1:70:87:e6:05:3f:83:e7:9c:b5:50:6d:3d:1d:34:
         2e:8a:1a:40:b8:f2:68:0f:58:41:b9:3f:68:13:44:50:ed:ba:
         d6:43:3e:63:d6:87:57:ac:7c:75:5b:01:d9:72:90:37:20:a9:
         49:ac:19:0f:09:04:62:df:73:fe:af:73:3b:47:da:c4:95:ac:
         b7:2d:cf:6b:89:a7:4f:bd:04:bd:1f:49:69:5b:af:2f:9a:cd:
         8c:94:a5:57:05:13:5c:ab:29:e9:0d:f5:ad:d1:c5:63:40:cd:
         a6:b5:63:d6:d6:6a:f1:ba:ed:84:c9:de:ee:d4:b5:08:29:3b:
         1f:8c:2b:54:66:66:bf:70:cd:78:04:d2:4a:04:c0:5a:1c:81:
         f6:28:51:ad:2b:73:6e:4b:54:99:6b:d0:88:40:6f:09:b0:f0:
         d5:f6:f1:f1:85:bd:00:05:23:cb:0e:04:a6:61:0c:18:86:30:
         d3:0a:96:e0:6c:0b:28:4d:8c:14:34:61:7e:e8:52:b7:48:e6:
         29:2d:97:45
-----BEGIN CERTIFICATE-----
MIIDbDCCAlSgAwIBAgIRAMIBsTierC4y/fxtg11jOK8wDQYJKoZIhvcNAQELBQAw
GDEWMBQGA1UEAwwNdnBuLmZ1ZXIuYWxsZTAeFw0yMzAxMjMyMDM0MTRaFw0yNTA0
MjcyMDM0MTRaMBExDzANBgNVBAMMBnNlcnZlcjCCASIwDQYJKoZIhvcNAQEBBQAD
ggEPADCCAQoCggEBANKRNlHAWLq5a4j9jjYoqzFJpg/oyOWfQcb18CZUU0XoWYOC
oiJTx7W4GLYOMovNthU92HACuPnSHEmwzmkmjqZbwMM8PXCW5oAhN+FqNsNIU5rl
mhTKqBGnhms5ra1jdsB7DOe4G8Rm0JqBKNcKgphoXl6wfEtoucOC5ScNRngRExOT
EFOyRgSU2l32rwDNEs1vnWFxXJ5s8wTkLUu8hL8CndfnDHGteoB/Y/IRn95UGv2t
iDnG9NmqAyuVhMbiKoOqMNDaDJsuAPE1IfS68ckJKCM+Ehs/T9fESAfKfda5NZRn
ww4UTzWe4/7RvLPSCK6Z7drQ87zolGMVqW3NdkkCAwEAAaOBtzCBtDAJBgNVHRME
AjAAMB0GA1UdDgQWBBSlgCZ9jWeTpvn0vxkcYt1mm8hPfDBTBgNVHSMETDBKgBTw
2UdTLKCAE0zpdTiVjmIqm6fB/aEcpBowGDEWMBQGA1UEAwwNdnBuLmZ1ZXIuYWxs
ZYIUAxHd0UzmyGsv2CqAKWhIMNQykzkwEwYDVR0lBAwwCgYIKwYBBQUHAwEwCwYD
VR0PBAQDAgWgMBEGA1UdEQQKMAiCBnNlcnZlcjANBgkqhkiG9w0BAQsFAAOCAQEA
Avq/VsSyh0Om3VIUvleFsW8bGhEOU/d5Bq/sQIwd1yQLkkF6POkjkNydPLL3ZyYo
JiSLx0ARwP5WwXCH5gU/g+ectVBtPR00LooaQLjyaA9YQbk/aBNEUO261kM+Y9aH
V6x8dVsB2XKQNyCpSawZDwkEYt9z/q9zO0faxJWsty3Pa4mnT70EvR9JaVuvL5rN
jJSlVwUTXKsp6Q31rdHFY0DNprVj1tZq8brthMne7tS1CCk7H4wrVGZmv3DNeATS
SgTAWhyB9ihRrStzbktUmWvQiEBvCbDw1fbx8YW9AAUjyw4EpmEMGIYw0wqW4GwL
KE2MFDRhfuhSt0jmKS2XRQ==
-----END CERTIFICATE-----
